(lp0
S'poi'
p1
aS'exercised_stock_options'
p2
aS'total_stock_value'
p3
aS'bonus'
p4
aS'salary'
p5
aS'long_term_incentive'
p6
aS'restricted_stock'
p7
aS'total_payments'
p8
aS'shared_receipt_with_poi'
p9
aS'expenses'
p10
aS'from_poi_to_this_person'
p11
aS'long_term_incentive_vs_salary'
p12
aS'other'
p13
aS'from_this_person_to_poi'
p14
aS'to_messages'
p15
aS'from_messages'
p16
a.